target datalayout = "e-m:e-p270:32:32-p271:32:32-p272:64:64-i64:64-i128:128-f80:128-n8:16:32:64-S128"
target triple = "x86_64-pc-linux-gnu"

%struct.JNINativeInterface_ = type { ptr, ptr, ptr, ptr, ptr, ptr, ptr, ptr, ptr, ptr, ptr, ptr, ptr, ptr, ptr, ptr, ptr, ptr, ptr, ptr, ptr, ptr, ptr, ptr, ptr, ptr, ptr, ptr, ptr, ptr, ptr, ptr, ptr, ptr, ptr, ptr, ptr, ptr, ptr, ptr, ptr, ptr, ptr, ptr, ptr, ptr, ptr, ptr, ptr, ptr, ptr, ptr, ptr, ptr, ptr, ptr, ptr, ptr, ptr, ptr, ptr, ptr, ptr, ptr, ptr, ptr, ptr, ptr, ptr, ptr, ptr, ptr, ptr, ptr, ptr, ptr, ptr, ptr, ptr, ptr, ptr, ptr, ptr, ptr, ptr, ptr, ptr, ptr, ptr, ptr, ptr, ptr, ptr, ptr, ptr, ptr, ptr, ptr, ptr, ptr, ptr, ptr, ptr, ptr, ptr, ptr, ptr, ptr, ptr, ptr, ptr, ptr, ptr, ptr, ptr, ptr, ptr, ptr, ptr, ptr, ptr, ptr, ptr, ptr, ptr, ptr, ptr, ptr, ptr, ptr, ptr, ptr, ptr, ptr, ptr, ptr, ptr, ptr, ptr, ptr, ptr, ptr, ptr, ptr, ptr, ptr, ptr, ptr, ptr, ptr, ptr, ptr, ptr, ptr, ptr, ptr, ptr, ptr, ptr, ptr, ptr, ptr, ptr, ptr, ptr, ptr, ptr, ptr, ptr, ptr, ptr, ptr, ptr, ptr, ptr, ptr, ptr, ptr, ptr, ptr, ptr, ptr, ptr, ptr, ptr, ptr, ptr, ptr, ptr, ptr, ptr, ptr, ptr, ptr, ptr, ptr, ptr, ptr, ptr, ptr, ptr, ptr, ptr, ptr, ptr, ptr, ptr, ptr, ptr, ptr, ptr, ptr, ptr, ptr, ptr, ptr, ptr, ptr, ptr, ptr, ptr, ptr, ptr, ptr, ptr, ptr, ptr, ptr, ptr, ptr, ptr, ptr, ptr, ptr, ptr }
%struct.GSS_FUNCTION_TABLE = type { ptr, ptr, ptr, ptr, ptr, ptr, ptr, ptr, ptr, ptr, ptr, ptr, ptr, ptr, ptr, ptr, ptr, ptr, ptr, ptr, ptr, ptr, ptr, ptr, ptr, ptr, ptr, ptr, ptr }

@JGSS_DEBUG = external global i32, align 4
@stderr = external global ptr, align 8
@ftab = external global ptr, align 8
@.str.56 = private unnamed_addr constant [49 x i8] c"[GSSLibStub:%d] [GSSLibStub_getContextMech] %ld\0A\00", align 1
@.str.57 = private unnamed_addr constant [28 x i8] c"[GSSLibStub_getContextMech]\00", align 1

; Function Attrs: nounwind uwtable
define ptr @Java_sun_security_jgss_wrapper_GSSLibStub_getContextMech(ptr noundef %0, ptr noundef %1, i64 noundef %2) #0 {
  %4 = alloca ptr, align 8
  %5 = alloca ptr, align 8
  %6 = alloca ptr, align 8
  %7 = alloca i64, align 8
  %8 = alloca i32, align 4
  %9 = alloca i32, align 4
  %10 = alloca ptr, align 8
  %11 = alloca ptr, align 8
  store ptr %0, ptr %5, align 8
  store ptr %1, ptr %6, align 8
  store i64 %2, ptr %7, align 8
  %12 = load i64, ptr %7, align 8
  %13 = inttoptr i64 %12 to ptr
  store ptr %13, ptr %11, align 8
  %14 = load i32, ptr @JGSS_DEBUG, align 4
  %15 = icmp ne i32 %14, 0
  br i1 %15, label %16, label %22

16:                                               ; preds = %3
  %17 = load ptr, ptr @stderr, align 8
  %18 = load i64, ptr %7, align 8
  %19 = call i32 (ptr, ptr, ...) @fprintf(ptr noundef %17, ptr noundef @.str.56, i32 noundef 1251, i64 noundef %18) #5
  %20 = load ptr, ptr @stderr, align 8
  %21 = call i32 @fflush(ptr noundef %20)
  br label %22

22:                                               ; preds = %16, %3
  %23 = load ptr, ptr @ftab, align 8
  %24 = getelementptr inbounds %struct.GSS_FUNCTION_TABLE, ptr %23, i32 0, i32 13
  %25 = load ptr, ptr %24, align 8
  %26 = load ptr, ptr %11, align 8
  %27 = call i32 %25(ptr noundef %8, ptr noundef %26, ptr noundef null, ptr noundef null, ptr noundef null, ptr noundef %10, ptr noundef null, ptr noundef null, ptr noundef null)
  store i32 %27, ptr %9, align 4
  %28 = load ptr, ptr %5, align 8
  %29 = load ptr, ptr %6, align 8
  %30 = load i32, ptr %9, align 4
  %31 = load i32, ptr %8, align 4
  call void @checkStatus(ptr noundef %28, ptr noundef %29, i32 noundef %30, i32 noundef %31, ptr noundef @.str.57)
  %32 = load ptr, ptr %5, align 8
  %33 = load ptr, ptr %32, align 8
  %34 = getelementptr inbounds %struct.JNINativeInterface_, ptr %33, i32 0, i32 228
  %35 = load ptr, ptr %34, align 8
  %36 = load ptr, ptr %5, align 8
  %37 = call zeroext i8 %35(ptr noundef %36)
  %38 = icmp ne i8 %37, 0
  br i1 %38, label %39, label %40

39:                                               ; preds = %22
  store ptr null, ptr %4, align 8
  br label %44

40:                                               ; preds = %22
  %41 = load ptr, ptr %5, align 8
  %42 = load ptr, ptr %10, align 8
  %43 = call ptr @getJavaOID(ptr noundef %41, ptr noundef %42)
  store ptr %43, ptr %4, align 8
  br label %44

44:                                               ; preds = %40, %39
  %45 = load ptr, ptr %4, align 8
  ret ptr %45
}