; Function Attrs: nounwind uwtable
define ptr @Java_sun_security_jgss_wrapper_GSSLibStub_getContextMech(ptr noundef %0, ptr noundef %1, i64 noundef %2) local_unnamed_addr #0 {
  %4 = alloca i32, align 4
  %5 = alloca ptr, align 8
  %6 = inttoptr i64 %2 to ptr
  %7 = load i32, ptr @JGSS_DEBUG, align 4
  %.not = icmp eq i32 %7, 0
  br i1 %.not, label %13, label %8

8:                                                ; preds = %3
  %9 = load ptr, ptr @stderr, align 8
  %10 = tail call i32 (ptr, ptr, ...) @fprintf(ptr noundef %9, ptr noundef nonnull @.str.56, i32 noundef 1251, i64 noundef %2) #8
  %11 = load ptr, ptr @stderr, align 8
  %12 = tail call i32 @fflush(ptr noundef %11)
  br label %13

13:                                               ; preds = %8, %3
  %14 = load ptr, ptr @ftab, align 8
  %15 = getelementptr inbounds i8, ptr %14, i64 104
  %16 = load ptr, ptr %15, align 8
  %17 = call i32 %16(ptr noundef nonnull %4, ptr noundef %6, ptr noundef null, ptr noundef null, ptr noundef null, ptr noundef nonnull %5, ptr noundef null, ptr noundef null, ptr noundef null) #9
  %18 = load i32, ptr %4, align 4
  call void @checkStatus(ptr noundef %0, ptr noundef %1, i32 noundef %17, i32 noundef %18, ptr noundef nonnull @.str.57) #9
  %19 = load ptr, ptr %0, align 8
  %20 = getelementptr inbounds i8, ptr %19, i64 1824
  %21 = load ptr, ptr %20, align 8
  %22 = call zeroext i8 %21(ptr noundef nonnull %0) #9
  %.not9 = icmp eq i8 %22, 0
  br i1 %.not9, label %23, label %26

23:                                               ; preds = %13
  %24 = load ptr, ptr %5, align 8
  %25 = call ptr @getJavaOID(ptr noundef nonnull %0, ptr noundef %24) #9
  br label %26

26:                                               ; preds = %13, %23
  %.0 = phi ptr [ %25, %23 ], [ null, %13 ]
  ret ptr %.0
}